target datalayout = "e-m:e-p270:32:32-p271:32:32-p272:64:64-i64:64-i128:128-f80:128-n8:16:32:64-S128"
target triple = "x86_64-pc-linux-gnu"

%struct.expert_field = type { i32, i32 }

@hf_eip_security_num_psk = internal global i32 0, align 4
@hf_eip_security_psk_identity_size = internal global i32 0, align 4
@hf_eip_security_psk_identity = internal global i32 0, align 4
@hf_eip_security_psk_size = internal global i32 0, align 4
@hf_eip_security_psk = internal global i32 0, align 4
@hf_eip_security_psk_usage = internal global i32 0, align 4
@ett_eip_security_psk = internal global i32 0, align 4
@ei_mal_eip_security_preshared_keys = internal global %struct.expert_field zeroinitializer, align 4

; Function Attrs: null_pointer_is_valid sspstrong uwtable
define internal i32 @dissect_eip_security_preshared_keys(ptr noundef %0, ptr noundef %1, ptr noundef %2, ptr noundef %3, i32 noundef %4, i32 noundef %5) #0 {
  %7 = alloca i32, align 4
  %8 = alloca ptr, align 8
  %9 = alloca ptr, align 8
  %10 = alloca ptr, align 8
  %11 = alloca ptr, align 8
  %12 = alloca i32, align 4
  %13 = alloca i32, align 4
  %14 = alloca i32, align 4
  %15 = alloca i32, align 4
  %16 = alloca i32, align 4
  %17 = alloca i32, align 4
  %18 = alloca ptr, align 8
  %19 = alloca ptr, align 8
  %20 = alloca i32, align 4
  %21 = alloca i32, align 4
  store ptr %0, ptr %8, align 8
  store ptr %1, ptr %9, align 8
  store ptr %2, ptr %10, align 8
  store ptr %3, ptr %11, align 8
  store i32 %4, ptr %12, align 4
  store i32 %5, ptr %13, align 4
  call void @llvm.lifetime.start.p0(i64 4, ptr %14) #14
  call void @llvm.lifetime.start.p0(i64 4, ptr %15) #14
  call void @llvm.lifetime.start.p0(i64 4, ptr %16) #14
  call void @llvm.lifetime.start.p0(i64 4, ptr %17) #14
  call void @llvm.lifetime.start.p0(i64 8, ptr %18) #14
  call void @llvm.lifetime.start.p0(i64 8, ptr %19) #14
  call void @llvm.lifetime.start.p0(i64 4, ptr %20) #14
  %22 = load i32, ptr %12, align 4
  store i32 %22, ptr %20, align 4
  %23 = load i32, ptr %13, align 4
  %24 = icmp slt i32 %23, 1
  br i1 %24, label %25, label %30

25:                                               ; preds = %6
  %26 = load ptr, ptr %8, align 8
  %27 = load ptr, ptr %10, align 8
  %28 = call ptr @expert_add_info(ptr noundef %26, ptr noundef %27, ptr noundef @ei_mal_eip_security_preshared_keys)
  %29 = load i32, ptr %13, align 4
  store i32 %29, ptr %7, align 4
  store i32 1, ptr %21, align 4
  br label %118

30:                                               ; preds = %6
  %31 = load ptr, ptr %9, align 8
  %32 = load i32, ptr @hf_eip_security_num_psk, align 4
  %33 = load ptr, ptr %11, align 8
  %34 = load i32, ptr %12, align 4
  %35 = call ptr @proto_tree_add_item_ret_uint(ptr noundef %31, i32 noundef %32, ptr noundef %33, i32 noundef %34, i32 noundef 1, i32 noundef 0, ptr noundef %15)
  store ptr %35, ptr %18, align 8
  %36 = load ptr, ptr %18, align 8
  %37 = load i32, ptr @ett_eip_security_psk, align 4
  %38 = call ptr @proto_item_add_subtree(ptr noundef %36, i32 noundef %37)
  store ptr %38, ptr %19, align 8
  %39 = load i32, ptr %12, align 4
  %40 = add i32 %39, 1
  store i32 %40, ptr %12, align 4
  store i32 0, ptr %14, align 4
  br label %41

41:                                               ; preds = %107, %30
  %42 = load i32, ptr %14, align 4
  %43 = load i32, ptr %15, align 4
  %44 = icmp ult i32 %42, %43
  br i1 %44, label %45, label %110

45:                                               ; preds = %41
  %46 = load ptr, ptr %19, align 8
  %47 = load i32, ptr @hf_eip_security_psk_identity_size, align 4
  %48 = load ptr, ptr %11, align 8
  %49 = load i32, ptr %12, align 4
  %50 = call ptr @proto_tree_add_item_ret_uint(ptr noundef %46, i32 noundef %47, ptr noundef %48, i32 noundef %49, i32 noundef 1, i32 noundef 0, ptr noundef %16)
  %51 = load i32, ptr %13, align 4
  %52 = load i32, ptr %16, align 4
  %53 = add i32 %52, 2
  %54 = icmp slt i32 %51, %53
  br i1 %54, label %55, label %60

55:                                               ; preds = %45
  %56 = load ptr, ptr %8, align 8
  %57 = load ptr, ptr %10, align 8
  %58 = call ptr @expert_add_info(ptr noundef %56, ptr noundef %57, ptr noundef @ei_mal_eip_security_preshared_keys)
  %59 = load i32, ptr %13, align 4
  store i32 %59, ptr %7, align 4
  store i32 1, ptr %21, align 4
  br label %118

60:                                               ; preds = %45
  %61 = load i32, ptr %12, align 4
  %62 = add i32 %61, 1
  store i32 %62, ptr %12, align 4
  %63 = load ptr, ptr %19, align 8
  %64 = load i32, ptr @hf_eip_security_psk_identity, align 4
  %65 = load ptr, ptr %11, align 8
  %66 = load i32, ptr %12, align 4
  %67 = load i32, ptr %16, align 4
  %68 = call ptr @proto_tree_add_item(ptr noundef %63, i32 noundef %64, ptr noundef %65, i32 noundef %66, i32 noundef %67, i32 noundef 0)
  %69 = load i32, ptr %16, align 4
  %70 = load i32, ptr %12, align 4
  %71 = add i32 %70, %69
  store i32 %71, ptr %12, align 4
  %72 = load ptr, ptr %19, align 8
  %73 = load i32, ptr @hf_eip_security_psk_size, align 4
  %74 = load ptr, ptr %11, align 8
  %75 = load i32, ptr %12, align 4
  %76 = call ptr @proto_tree_add_item_ret_uint(ptr noundef %72, i32 noundef %73, ptr noundef %74, i32 noundef %75, i32 noundef 1, i32 noundef 0, ptr noundef %17)
  %77 = load i32, ptr %12, align 4
  %78 = add i32 %77, 1
  store i32 %78, ptr %12, align 4
  %79 = load i32, ptr %13, align 4
  %80 = load i32, ptr %16, align 4
  %81 = load i32, ptr %17, align 4
  %82 = add i32 %80, %81
  %83 = add i32 %82, 2
  %84 = icmp slt i32 %79, %83
  br i1 %84, label %85, label %90

85:                                               ; preds = %60
  %86 = load ptr, ptr %8, align 8
  %87 = load ptr, ptr %10, align 8
  %88 = call ptr @expert_add_info(ptr noundef %86, ptr noundef %87, ptr noundef @ei_mal_eip_security_preshared_keys)
  %89 = load i32, ptr %13, align 4
  store i32 %89, ptr %7, align 4
  store i32 1, ptr %21, align 4
  br label %118

90:                                               ; preds = %60
  %91 = load ptr, ptr %19, align 8
  %92 = load i32, ptr @hf_eip_security_psk, align 4
  %93 = load ptr, ptr %11, align 8
  %94 = load i32, ptr %12, align 4
  %95 = load i32, ptr %17, align 4
  %96 = call ptr @proto_tree_add_item(ptr noundef %91, i32 noundef %92, ptr noundef %93, i32 noundef %94, i32 noundef %95, i32 noundef 0)
  %97 = load i32, ptr %17, align 4
  %98 = load i32, ptr %12, align 4
  %99 = add i32 %98, %97
  store i32 %99, ptr %12, align 4
  %100 = load ptr, ptr %19, align 8
  %101 = load i32, ptr @hf_eip_security_psk_usage, align 4
  %102 = load ptr, ptr %11, align 8
  %103 = load i32, ptr %12, align 4
  %104 = call ptr @proto_tree_add_item(ptr noundef %100, i32 noundef %101, ptr noundef %102, i32 noundef %103, i32 noundef 1, i32 noundef 0)
  %105 = load i32, ptr %12, align 4
  %106 = add i32 %105, 1
  store i32 %106, ptr %12, align 4
  br label %107

107:                                              ; preds = %90
  %108 = load i32, ptr %14, align 4
  %109 = add i32 %108, 1
  store i32 %109, ptr %14, align 4
  br label %41, !llvm.loop !16

110:                                              ; preds = %41
  %111 = load ptr, ptr %18, align 8
  %112 = load i32, ptr %12, align 4
  %113 = load i32, ptr %20, align 4
  %114 = sub i32 %112, %113
  call void @proto_item_set_len(ptr noundef %111, i32 noundef %114)
  %115 = load i32, ptr %12, align 4
  %116 = load i32, ptr %20, align 4
  %117 = sub i32 %115, %116
  store i32 %117, ptr %7, align 4
  store i32 1, ptr %21, align 4
  br label %118

118:                                              ; preds = %110, %85, %55, %25
  call void @llvm.lifetime.end.p0(i64 4, ptr %20) #14
  call void @llvm.lifetime.end.p0(i64 8, ptr %19) #14
  call void @llvm.lifetime.end.p0(i64 8, ptr %18) #14
  call void @llvm.lifetime.end.p0(i64 4, ptr %17) #14
  call void @llvm.lifetime.end.p0(i64 4, ptr %16) #14
  call void @llvm.lifetime.end.p0(i64 4, ptr %15) #14
  call void @llvm.lifetime.end.p0(i64 4, ptr %14) #14
  %119 = load i32, ptr %7, align 4
  ret i32 %119
}