; Function Attrs: null_pointer_is_valid sspstrong uwtable
define internal noundef i32 @dissect_eip_security_preshared_keys(ptr noundef %0, ptr noundef %1, ptr noundef %2, ptr noundef %3, i32 noundef %4, i32 noundef %5) #0 {
  %7 = alloca i32, align 4
  %8 = alloca i32, align 4
  %9 = alloca i32, align 4
  call void @llvm.lifetime.start.p0(i64 4, ptr nonnull %7) #12
  call void @llvm.lifetime.start.p0(i64 4, ptr nonnull %8) #12
  call void @llvm.lifetime.start.p0(i64 4, ptr nonnull %9) #12
  %10 = icmp slt i32 %5, 1
  br i1 %10, label %11, label %13

11:                                               ; preds = %6
  %12 = tail call ptr @expert_add_info(ptr noundef %0, ptr noundef %2, ptr noundef nonnull @ei_mal_eip_security_preshared_keys)
  br label %53

13:                                               ; preds = %6
  %14 = load i32, ptr @hf_eip_security_num_psk, align 4
  %15 = call ptr @proto_tree_add_item_ret_uint(ptr noundef %1, i32 noundef %14, ptr noundef %3, i32 noundef %4, i32 noundef 1, i32 noundef 0, ptr noundef nonnull %7)
  %16 = load i32, ptr @ett_eip_security_psk, align 4
  %17 = call ptr @proto_item_add_subtree(ptr noundef %15, i32 noundef %16)
  %.04550 = add i32 %4, 1
  %18 = load i32, ptr %7, align 4
  %.not = icmp eq i32 %18, 0
  br i1 %.not, label %._crit_edge, label %.lr.ph

.lr.ph:                                           ; preds = %13, %41
  %.04553 = phi i32 [ %.045, %41 ], [ %.04550, %13 ]
  %.045.in52 = phi i32 [ %46, %41 ], [ %4, %13 ]
  %.04651 = phi i32 [ %49, %41 ], [ 0, %13 ]
  %19 = load i32, ptr @hf_eip_security_psk_identity_size, align 4
  %20 = call ptr @proto_tree_add_item_ret_uint(ptr noundef %17, i32 noundef %19, ptr noundef %3, i32 noundef %.04553, i32 noundef 1, i32 noundef 0, ptr noundef nonnull %8)
  %21 = load i32, ptr %8, align 4
  %22 = add i32 %21, 2
  %23 = icmp slt i32 %5, %22
  br i1 %23, label %24, label %26

24:                                               ; preds = %.lr.ph
  %25 = call ptr @expert_add_info(ptr noundef %0, ptr noundef %2, ptr noundef nonnull @ei_mal_eip_security_preshared_keys)
  br label %53

26:                                               ; preds = %.lr.ph
  %27 = add i32 %.045.in52, 2
  %28 = load i32, ptr @hf_eip_security_psk_identity, align 4
  %29 = call ptr @proto_tree_add_item(ptr noundef %17, i32 noundef %28, ptr noundef %3, i32 noundef %27, i32 noundef %21, i32 noundef 0)
  %30 = load i32, ptr %8, align 4
  %31 = add i32 %30, %27
  %32 = load i32, ptr @hf_eip_security_psk_size, align 4
  %33 = call ptr @proto_tree_add_item_ret_uint(ptr noundef %17, i32 noundef %32, ptr noundef %3, i32 noundef %31, i32 noundef 1, i32 noundef 0, ptr noundef nonnull %9)
  %34 = load i32, ptr %8, align 4
  %35 = load i32, ptr %9, align 4
  %36 = add i32 %34, 2
  %37 = add i32 %36, %35
  %38 = icmp slt i32 %5, %37
  br i1 %38, label %39, label %41

39:                                               ; preds = %26
  %40 = call ptr @expert_add_info(ptr noundef %0, ptr noundef %2, ptr noundef nonnull @ei_mal_eip_security_preshared_keys)
  br label %53

41:                                               ; preds = %26
  %42 = add i32 %31, 1
  %43 = load i32, ptr @hf_eip_security_psk, align 4
  %44 = call ptr @proto_tree_add_item(ptr noundef %17, i32 noundef %43, ptr noundef %3, i32 noundef %42, i32 noundef %35, i32 noundef 0)
  %45 = load i32, ptr %9, align 4
  %46 = add i32 %45, %42
  %47 = load i32, ptr @hf_eip_security_psk_usage, align 4
  %48 = call ptr @proto_tree_add_item(ptr noundef %17, i32 noundef %47, ptr noundef %3, i32 noundef %46, i32 noundef 1, i32 noundef 0)
  %49 = add nuw i32 %.04651, 1
  %.045 = add i32 %46, 1
  %50 = load i32, ptr %7, align 4
  %51 = icmp ult i32 %49, %50
  br i1 %51, label %.lr.ph, label %._crit_edge, !llvm.loop !14

._crit_edge:                                      ; preds = %41, %13
  %.045.lcssa = phi i32 [ %.04550, %13 ], [ %.045, %41 ]
  %52 = sub i32 %.045.lcssa, %4
  call void @proto_item_set_len(ptr noundef %15, i32 noundef %52)
  br label %53

53:                                               ; preds = %._crit_edge, %39, %24, %11
  %.0 = phi i32 [ %5, %11 ], [ %5, %24 ], [ %5, %39 ], [ %52, %._crit_edge ]
  call void @llvm.lifetime.end.p0(i64 4, ptr nonnull %9) #12
  call void @llvm.lifetime.end.p0(i64 4, ptr nonnull %8) #12
  call void @llvm.lifetime.end.p0(i64 4, ptr nonnull %7) #12
  ret i32 %.0
}